; Function Attrs: mustprogress nofree nounwind willreturn memory(write, argmem: none, inaccessiblemem: readwrite) uwtable
define internal fastcc noalias noundef ptr @history_node_new() unnamed_addr #24 {
  %1 = tail call noalias dereferenceable_or_null(32) ptr @malloc(i64 noundef 32) #28
  %2 = icmp eq ptr %1, null
  br i1 %2, label %9, label %3

3:                                                ; preds = %0
  %4 = getelementptr inbounds nuw i8, ptr %1, i64 24
  store ptr null, ptr %4, align 8, !tbaa !29
  %5 = getelementptr inbounds nuw i8, ptr %1, i64 12
  store i32 0, ptr %5, align 4, !tbaa !32
  %6 = getelementptr inbounds nuw i8, ptr %1, i64 16
  store i32 0, ptr %6, align 8, !tbaa !33
  store i32 -1, ptr %1, align 8, !tbaa !34
  %7 = getelementptr inbounds nuw i8, ptr %1, i64 4
  store i32 -1, ptr %7, align 4, !tbaa !35
  %8 = getelementptr inbounds nuw i8, ptr %1, i64 8
  store i32 -1, ptr %8, align 8, !tbaa !36
  br label %9

9:                                                ; preds = %0, %3
  ret ptr %1
}